target datalayout = "e-m:e-p270:32:32-p271:32:32-p272:64:64-i64:64-i128:128-f80:128-n8:16:32:64-S128"
target triple = "x86_64-pc-linux-gnu"

%class.XStatValue = type { ptr, ptr, i32, i32 }
%class.XStatSampler = type { %class.XStatIterableValue, ptr }
%class.XStatIterableValue = type { %class.XStatValue, ptr }
%class.XStatPhase = type { ptr, %class.XStatSampler }

@_ZTV10XStatPhase = linkonce_odr hidden unnamed_addr constant { [4 x ptr] } { [4 x ptr] [ptr null, ptr null, ptr @__cxa_pure_virtual, ptr @__cxa_pure_virtual] }, comdat, align 8
@_ZN12XStatSamplerC1EPKcS1_PFv15LogTargetHandleRKS_RK19XStatSamplerHistoryE = hidden unnamed_addr alias void (ptr, ptr, ptr, ptr), ptr @_ZN12XStatSamplerC2EPKcS1_PFv15LogTargetHandleRKS_RK19XStatSamplerHistoryE

; Function Attrs: mustprogress nounwind uwtable
define hidden void @_ZN10XStatPhaseC2EPKcS1_(ptr noundef nonnull align 8 dereferenceable(48) %0, ptr noundef %1, ptr noundef %2) unnamed_addr #1 align 2 {
  %4 = alloca ptr, align 8
  %5 = alloca ptr, align 8
  %6 = alloca ptr, align 8
  store ptr %0, ptr %4, align 8
  store ptr %1, ptr %5, align 8
  store ptr %2, ptr %6, align 8
  %7 = load ptr, ptr %4, align 8
  store ptr getelementptr inbounds inrange(-16, 16) ({ [4 x ptr] }, ptr @_ZTV10XStatPhase, i32 0, i32 0, i32 2), ptr %7, align 8
  %8 = getelementptr inbounds %class.XStatPhase, ptr %7, i32 0, i32 1
  %9 = load ptr, ptr %5, align 8
  %10 = load ptr, ptr %6, align 8
  call void @_ZN12XStatSamplerC1EPKcS1_PFv15LogTargetHandleRKS_RK19XStatSamplerHistoryE(ptr noundef nonnull align 8 dereferenceable(40) %8, ptr noundef %9, ptr noundef %10, ptr noundef @_Z13XStatUnitTime15LogTargetHandleRK12XStatSamplerRK19XStatSamplerHistory)
  ret void
}