; Function Attrs: mustprogress nofree norecurse nosync nounwind willreturn memory(readwrite, argmem: write, inaccessiblemem: none) uwtable
define hidden void @_ZN10XStatPhaseC2EPKcS1_(ptr noundef nonnull align 8 dereferenceable(48) %0, ptr noundef %1, ptr noundef %2) unnamed_addr #3 align 2 {
  store ptr getelementptr inbounds inrange(-16, 16) (i8, ptr @_ZTV10XStatPhase, i64 16), ptr %0, align 8
  %4 = getelementptr inbounds i8, ptr %0, i64 8
  %5 = load i32, ptr @_ZN18XStatIterableValueI12XStatSamplerE6_countE, align 4
  %6 = add i32 %5, 1
  store i32 %6, ptr @_ZN18XStatIterableValueI12XStatSamplerE6_countE, align 4
  store ptr %1, ptr %4, align 8
  %7 = getelementptr inbounds i8, ptr %0, i64 16
  store ptr %2, ptr %7, align 8
  %8 = getelementptr inbounds i8, ptr %0, i64 24
  store i32 %5, ptr %8, align 8
  %9 = getelementptr inbounds i8, ptr %0, i64 28
  %10 = load i32, ptr @_ZN10XStatValue11_cpu_offsetE, align 4
  store i32 %10, ptr %9, align 4
  %11 = add i32 %10, 24
  store i32 %11, ptr @_ZN10XStatValue11_cpu_offsetE, align 4
  %12 = getelementptr inbounds i8, ptr %0, i64 32
  %13 = load ptr, ptr @_ZN18XStatIterableValueI12XStatSamplerE6_firstE, align 8
  store ptr %4, ptr @_ZN18XStatIterableValueI12XStatSamplerE6_firstE, align 8
  store ptr %13, ptr %12, align 8
  %14 = getelementptr inbounds i8, ptr %0, i64 40
  store ptr @_Z13XStatUnitTime15LogTargetHandleRK12XStatSamplerRK19XStatSamplerHistory, ptr %14, align 8
  ret void
}